target datalayout = "e-m:e-p270:32:32-p271:32:32-p272:64:64-i64:64-i128:128-f80:128-n8:16:32:64-S128"
target triple = "x86_64-pc-linux-gnu"

%struct.Font = type { i32, i32, i32, %struct.Texture, ptr, ptr }
%struct.Texture = type { i32, i32, i32, i32, i32 }
%struct.Color = type { i8, i8, i8, i8 }
%struct.Image = type { ptr, i32, i32, i32, i32 }
%struct.GlyphInfo = type { i32, i32, i32, i32, %struct.Image }
%struct.Rectangle = type { float, float, float, float }
%struct.Vector2 = type { float, float }

; Function Attrs: nounwind uwtable
define zeroext i1 @IsFontValid(ptr noundef byval(%struct.Font) align 8 %0) #0 {
  %2 = getelementptr inbounds nuw %struct.Font, ptr %0, i32 0, i32 0
  %3 = load i32, ptr %2, align 8
  %4 = icmp sgt i32 %3, 0
  br i1 %4, label %5, label %17

5:                                                ; preds = %1
  %6 = getelementptr inbounds nuw %struct.Font, ptr %0, i32 0, i32 1
  %7 = load i32, ptr %6, align 4
  %8 = icmp sgt i32 %7, 0
  br i1 %8, label %9, label %17

9:                                                ; preds = %5
  %10 = getelementptr inbounds nuw %struct.Font, ptr %0, i32 0, i32 4
  %11 = load ptr, ptr %10, align 8
  %12 = icmp ne ptr %11, null
  br i1 %12, label %13, label %17

13:                                               ; preds = %9
  %14 = getelementptr inbounds nuw %struct.Font, ptr %0, i32 0, i32 5
  %15 = load ptr, ptr %14, align 8
  %16 = icmp ne ptr %15, null
  br label %17

17:                                               ; preds = %13, %9, %5, %1
  %18 = phi i1 [ false, %9 ], [ false, %5 ], [ false, %1 ], [ %16, %13 ]
  ret i1 %18
}

; Function Attrs: nounwind uwtable
define i32 @GetGlyphIndex(ptr noundef byval(%struct.Font) align 8 %0, i32 noundef %1) #0 {
  %3 = alloca i32, align 4
  %4 = alloca i32, align 4
  %5 = alloca i32, align 4
  %6 = alloca i32, align 4
  %7 = alloca i32, align 4
  %8 = alloca i32, align 4
  store i32 %1, ptr %4, align 4
  call void @llvm.lifetime.start.p0(i64 4, ptr %5) #13
  store i32 0, ptr %5, align 4
  %9 = call zeroext i1 @IsFontValid(ptr noundef byval(%struct.Font) align 8 %0)
  br i1 %9, label %12, label %10

10:                                               ; preds = %2
  %11 = load i32, ptr %5, align 4
  store i32 %11, ptr %3, align 4
  store i32 1, ptr %6, align 4
  br label %62

12:                                               ; preds = %2
  call void @llvm.lifetime.start.p0(i64 4, ptr %7) #13
  store i32 0, ptr %7, align 4
  call void @llvm.lifetime.start.p0(i64 4, ptr %8) #13
  store i32 0, ptr %8, align 4
  br label %13

13:                                               ; preds = %43, %12
  %14 = load i32, ptr %8, align 4
  %15 = getelementptr inbounds nuw %struct.Font, ptr %0, i32 0, i32 1
  %16 = load i32, ptr %15, align 4
  %17 = icmp slt i32 %14, %16
  br i1 %17, label %19, label %18

18:                                               ; preds = %13
  store i32 2, ptr %6, align 4
  br label %46

19:                                               ; preds = %13
  %20 = getelementptr inbounds nuw %struct.Font, ptr %0, i32 0, i32 5
  %21 = load ptr, ptr %20, align 8
  %22 = load i32, ptr %8, align 4
  %23 = sext i32 %22 to i64
  %24 = getelementptr inbounds %struct.GlyphInfo, ptr %21, i64 %23
  %25 = getelementptr inbounds nuw %struct.GlyphInfo, ptr %24, i32 0, i32 0
  %26 = load i32, ptr %25, align 8
  %27 = icmp eq i32 %26, 63
  br i1 %27, label %28, label %30

28:                                               ; preds = %19
  %29 = load i32, ptr %8, align 4
  store i32 %29, ptr %7, align 4
  br label %30

30:                                               ; preds = %28, %19
  %31 = getelementptr inbounds nuw %struct.Font, ptr %0, i32 0, i32 5
  %32 = load ptr, ptr %31, align 8
  %33 = load i32, ptr %8, align 4
  %34 = sext i32 %33 to i64
  %35 = getelementptr inbounds %struct.GlyphInfo, ptr %32, i64 %34
  %36 = getelementptr inbounds nuw %struct.GlyphInfo, ptr %35, i32 0, i32 0
  %37 = load i32, ptr %36, align 8
  %38 = load i32, ptr %4, align 4
  %39 = icmp eq i32 %37, %38
  br i1 %39, label %40, label %42

40:                                               ; preds = %30
  %41 = load i32, ptr %8, align 4
  store i32 %41, ptr %5, align 4
  store i32 2, ptr %6, align 4
  br label %46

42:                                               ; preds = %30
  br label %43

43:                                               ; preds = %42
  %44 = load i32, ptr %8, align 4
  %45 = add nsw i32 %44, 1
  store i32 %45, ptr %8, align 4
  br label %13

46:                                               ; preds = %40, %18
  call void @llvm.lifetime.end.p0(i64 4, ptr %8) #13
  br label %47

47:                                               ; preds = %46
  %48 = load i32, ptr %5, align 4
  %49 = icmp eq i32 %48, 0
  br i1 %49, label %50, label %60

50:                                               ; preds = %47
  %51 = getelementptr inbounds nuw %struct.Font, ptr %0, i32 0, i32 5
  %52 = load ptr, ptr %51, align 8
  %53 = getelementptr inbounds %struct.GlyphInfo, ptr %52, i64 0
  %54 = getelementptr inbounds nuw %struct.GlyphInfo, ptr %53, i32 0, i32 0
  %55 = load i32, ptr %54, align 8
  %56 = load i32, ptr %4, align 4
  %57 = icmp ne i32 %55, %56
  br i1 %57, label %58, label %60

58:                                               ; preds = %50
  %59 = load i32, ptr %7, align 4
  store i32 %59, ptr %5, align 4
  br label %60

60:                                               ; preds = %58, %50, %47
  %61 = load i32, ptr %5, align 4
  store i32 %61, ptr %3, align 4
  store i32 1, ptr %6, align 4
  call void @llvm.lifetime.end.p0(i64 4, ptr %7) #13
  br label %62

62:                                               ; preds = %60, %10
  call void @llvm.lifetime.end.p0(i64 4, ptr %5) #13
  %63 = load i32, ptr %3, align 4
  ret i32 %63
}

; Function Attrs: nounwind uwtable
define void @DrawTextCodepoint(ptr noundef byval(%struct.Font) align 8 %0, i32 noundef %1, <2 x float> %2, float noundef %3, i32 %4) #3 {
  %6 = alloca %struct.Vector2, align 4
  %7 = alloca %struct.Color, align 1
  %8 = alloca i32, align 4
  %9 = alloca float, align 4
  %10 = alloca i32, align 4
  %11 = alloca float, align 4
  %12 = alloca %struct.Rectangle, align 4
  %13 = alloca %struct.Rectangle, align 4
  %14 = alloca %struct.Vector2, align 4
  %15 = alloca %struct.Texture, align 8
  store <2 x float> %2, ptr %6, align 4
  store i32 %4, ptr %7, align 1
  store i32 %1, ptr %8, align 4
  store float %3, ptr %9, align 4
  call void @llvm.lifetime.start.p0(i64 4, ptr %10) #13
  %16 = load i32, ptr %8, align 4
  %17 = call i32 @GetGlyphIndex(ptr noundef byval(%struct.Font) align 8 %0, i32 noundef %16)
  store i32 %17, ptr %10, align 4
  call void @llvm.lifetime.start.p0(i64 4, ptr %11) #13
  %18 = load float, ptr %9, align 4
  %19 = getelementptr inbounds nuw %struct.Font, ptr %0, i32 0, i32 0
  %20 = load i32, ptr %19, align 8
  %21 = sitofp i32 %20 to float
  %22 = fdiv float %18, %21
  store float %22, ptr %11, align 4
  call void @llvm.lifetime.start.p0(i64 16, ptr %12) #13
  %23 = getelementptr inbounds nuw %struct.Rectangle, ptr %12, i32 0, i32 0
  %24 = getelementptr inbounds nuw %struct.Vector2, ptr %6, i32 0, i32 0
  %25 = load float, ptr %24, align 4
  %26 = getelementptr inbounds nuw %struct.Font, ptr %0, i32 0, i32 5
  %27 = load ptr, ptr %26, align 8
  %28 = load i32, ptr %10, align 4
  %29 = sext i32 %28 to i64
  %30 = getelementptr inbounds %struct.GlyphInfo, ptr %27, i64 %29
  %31 = getelementptr inbounds nuw %struct.GlyphInfo, ptr %30, i32 0, i32 1
  %32 = load i32, ptr %31, align 4
  %33 = sitofp i32 %32 to float
  %34 = load float, ptr %11, align 4
  %35 = call float @llvm.fmuladd.f32(float %33, float %34, float %25)
  %36 = getelementptr inbounds nuw %struct.Font, ptr %0, i32 0, i32 2
  %37 = load i32, ptr %36, align 8
  %38 = sitofp i32 %37 to float
  %39 = load float, ptr %11, align 4
  %40 = fneg float %38
  %41 = call float @llvm.fmuladd.f32(float %40, float %39, float %35)
  store float %41, ptr %23, align 4
  %42 = getelementptr inbounds nuw %struct.Rectangle, ptr %12, i32 0, i32 1
  %43 = getelementptr inbounds nuw %struct.Vector2, ptr %6, i32 0, i32 1
  %44 = load float, ptr %43, align 4
  %45 = getelementptr inbounds nuw %struct.Font, ptr %0, i32 0, i32 5
  %46 = load ptr, ptr %45, align 8
  %47 = load i32, ptr %10, align 4
  %48 = sext i32 %47 to i64
  %49 = getelementptr inbounds %struct.GlyphInfo, ptr %46, i64 %48
  %50 = getelementptr inbounds nuw %struct.GlyphInfo, ptr %49, i32 0, i32 2
  %51 = load i32, ptr %50, align 8
  %52 = sitofp i32 %51 to float
  %53 = load float, ptr %11, align 4
  %54 = call float @llvm.fmuladd.f32(float %52, float %53, float %44)
  %55 = getelementptr inbounds nuw %struct.Font, ptr %0, i32 0, i32 2
  %56 = load i32, ptr %55, align 8
  %57 = sitofp i32 %56 to float
  %58 = load float, ptr %11, align 4
  %59 = fneg float %57
  %60 = call float @llvm.fmuladd.f32(float %59, float %58, float %54)
  store float %60, ptr %42, align 4
  %61 = getelementptr inbounds nuw %struct.Rectangle, ptr %12, i32 0, i32 2
  %62 = getelementptr inbounds nuw %struct.Font, ptr %0, i32 0, i32 4
  %63 = load ptr, ptr %62, align 8
  %64 = load i32, ptr %10, align 4
  %65 = sext i32 %64 to i64
  %66 = getelementptr inbounds %struct.Rectangle, ptr %63, i64 %65
  %67 = getelementptr inbounds nuw %struct.Rectangle, ptr %66, i32 0, i32 2
  %68 = load float, ptr %67, align 4
  %69 = getelementptr inbounds nuw %struct.Font, ptr %0, i32 0, i32 2
  %70 = load i32, ptr %69, align 8
  %71 = sitofp i32 %70 to float
  %72 = call float @llvm.fmuladd.f32(float 2.000000e+00, float %71, float %68)
  %73 = load float, ptr %11, align 4
  %74 = fmul float %72, %73
  store float %74, ptr %61, align 4
  %75 = getelementptr inbounds nuw %struct.Rectangle, ptr %12, i32 0, i32 3
  %76 = getelementptr inbounds nuw %struct.Font, ptr %0, i32 0, i32 4
  %77 = load ptr, ptr %76, align 8
  %78 = load i32, ptr %10, align 4
  %79 = sext i32 %78 to i64
  %80 = getelementptr inbounds %struct.Rectangle, ptr %77, i64 %79
  %81 = getelementptr inbounds nuw %struct.Rectangle, ptr %80, i32 0, i32 3
  %82 = load float, ptr %81, align 4
  %83 = getelementptr inbounds nuw %struct.Font, ptr %0, i32 0, i32 2
  %84 = load i32, ptr %83, align 8
  %85 = sitofp i32 %84 to float
  %86 = call float @llvm.fmuladd.f32(float 2.000000e+00, float %85, float %82)
  %87 = load float, ptr %11, align 4
  %88 = fmul float %86, %87
  store float %88, ptr %75, align 4
  call void @llvm.lifetime.start.p0(i64 16, ptr %13) #13
  %89 = getelementptr inbounds nuw %struct.Rectangle, ptr %13, i32 0, i32 0
  %90 = getelementptr inbounds nuw %struct.Font, ptr %0, i32 0, i32 4
  %91 = load ptr, ptr %90, align 8
  %92 = load i32, ptr %10, align 4
  %93 = sext i32 %92 to i64
  %94 = getelementptr inbounds %struct.Rectangle, ptr %91, i64 %93
  %95 = getelementptr inbounds nuw %struct.Rectangle, ptr %94, i32 0, i32 0
  %96 = load float, ptr %95, align 4
  %97 = getelementptr inbounds nuw %struct.Font, ptr %0, i32 0, i32 2
  %98 = load i32, ptr %97, align 8
  %99 = sitofp i32 %98 to float
  %100 = fsub float %96, %99
  store float %100, ptr %89, align 4
  %101 = getelementptr inbounds nuw %struct.Rectangle, ptr %13, i32 0, i32 1
  %102 = getelementptr inbounds nuw %struct.Font, ptr %0, i32 0, i32 4
  %103 = load ptr, ptr %102, align 8
  %104 = load i32, ptr %10, align 4
  %105 = sext i32 %104 to i64
  %106 = getelementptr inbounds %struct.Rectangle, ptr %103, i64 %105
  %107 = getelementptr inbounds nuw %struct.Rectangle, ptr %106, i32 0, i32 1
  %108 = load float, ptr %107, align 4
  %109 = getelementptr inbounds nuw %struct.Font, ptr %0, i32 0, i32 2
  %110 = load i32, ptr %109, align 8
  %111 = sitofp i32 %110 to float
  %112 = fsub float %108, %111
  store float %112, ptr %101, align 4
  %113 = getelementptr inbounds nuw %struct.Rectangle, ptr %13, i32 0, i32 2
  %114 = getelementptr inbounds nuw %struct.Font, ptr %0, i32 0, i32 4
  %115 = load ptr, ptr %114, align 8
  %116 = load i32, ptr %10, align 4
  %117 = sext i32 %116 to i64
  %118 = getelementptr inbounds %struct.Rectangle, ptr %115, i64 %117
  %119 = getelementptr inbounds nuw %struct.Rectangle, ptr %118, i32 0, i32 2
  %120 = load float, ptr %119, align 4
  %121 = getelementptr inbounds nuw %struct.Font, ptr %0, i32 0, i32 2
  %122 = load i32, ptr %121, align 8
  %123 = sitofp i32 %122 to float
  %124 = call float @llvm.fmuladd.f32(float 2.000000e+00, float %123, float %120)
  store float %124, ptr %113, align 4
  %125 = getelementptr inbounds nuw %struct.Rectangle, ptr %13, i32 0, i32 3
  %126 = getelementptr inbounds nuw %struct.Font, ptr %0, i32 0, i32 4
  %127 = load ptr, ptr %126, align 8
  %128 = load i32, ptr %10, align 4
  %129 = sext i32 %128 to i64
  %130 = getelementptr inbounds %struct.Rectangle, ptr %127, i64 %129
  %131 = getelementptr inbounds nuw %struct.Rectangle, ptr %130, i32 0, i32 3
  %132 = load float, ptr %131, align 4
  %133 = getelementptr inbounds nuw %struct.Font, ptr %0, i32 0, i32 2
  %134 = load i32, ptr %133, align 8
  %135 = sitofp i32 %134 to float
  %136 = call float @llvm.fmuladd.f32(float 2.000000e+00, float %135, float %132)
  store float %136, ptr %125, align 4
  %137 = getelementptr inbounds nuw %struct.Font, ptr %0, i32 0, i32 3
  %138 = getelementptr inbounds nuw %struct.Vector2, ptr %14, i32 0, i32 0
  store float 0.000000e+00, ptr %138, align 4
  %139 = getelementptr inbounds nuw %struct.Vector2, ptr %14, i32 0, i32 1
  store float 0.000000e+00, ptr %139, align 4
  call void @llvm.lifetime.start.p0(i64 20, ptr %15) #13
  call void @llvm.memcpy.p0.p0.i64(ptr align 8 %15, ptr align 4 %137, i64 20, i1 false)
  %140 = getelementptr inbounds nuw { <2 x float>, <2 x float> }, ptr %13, i32 0, i32 0
  %141 = load <2 x float>, ptr %140, align 4
  %142 = getelementptr inbounds nuw { <2 x float>, <2 x float> }, ptr %13, i32 0, i32 1
  %143 = load <2 x float>, ptr %142, align 4
  %144 = getelementptr inbounds nuw { <2 x float>, <2 x float> }, ptr %12, i32 0, i32 0
  %145 = load <2 x float>, ptr %144, align 4
  %146 = getelementptr inbounds nuw { <2 x float>, <2 x float> }, ptr %12, i32 0, i32 1
  %147 = load <2 x float>, ptr %146, align 4
  %148 = load <2 x float>, ptr %14, align 4
  %149 = load i32, ptr %7, align 1
  call void @DrawTexturePro(ptr noundef byval(%struct.Texture) align 8 %15, <2 x float> %141, <2 x float> %143, <2 x float> %145, <2 x float> %147, <2 x float> %148, float noundef 0.000000e+00, i32 %149)
  call void @llvm.lifetime.end.p0(i64 20, ptr %15) #13
  call void @llvm.lifetime.end.p0(i64 16, ptr %13) #13
  call void @llvm.lifetime.end.p0(i64 16, ptr %12) #13
  call void @llvm.lifetime.end.p0(i64 4, ptr %11) #13
  call void @llvm.lifetime.end.p0(i64 4, ptr %10) #13
  ret void
}