; Function Attrs: nounwind uwtable
define void @DrawTextCodepoint(ptr noundef readonly byval(%struct.Font) align 8 captures(none) %0, i32 noundef %1, <2 x float> %2, float noundef %3, i32 %4) local_unnamed_addr #6 {
  %6 = alloca %struct.Texture, align 8
  %7 = load i32, ptr %0, align 8
  %8 = icmp sgt i32 %7, 0
  %9 = getelementptr inbounds nuw i8, ptr %0, i64 4
  %10 = load i32, ptr %9, align 4
  %11 = icmp sgt i32 %10, 0
  %or.cond.i.i = select i1 %8, i1 %11, i1 false
  %12 = getelementptr inbounds nuw i8, ptr %0, i64 32
  %13 = load ptr, ptr %12, align 8
  %14 = icmp ne ptr %13, null
  %or.cond5.i.i = select i1 %or.cond.i.i, i1 %14, i1 false
  %15 = getelementptr inbounds nuw i8, ptr %0, i64 40
  %16 = load ptr, ptr %15, align 8
  %17 = icmp ne ptr %16, null
  %or.cond.i = select i1 %or.cond5.i.i, i1 %17, i1 false
  br i1 %or.cond.i, label %.preheader.i, label %GetGlyphIndex.exit

.preheader.i:                                     ; preds = %5
  %wide.trip.count.i = zext nneg i32 %10 to i64
  br label %18

18:                                               ; preds = %24, %.preheader.i
  %indvars.iv.i = phi i64 [ 0, %.preheader.i ], [ %indvars.iv.next.i, %24 ]
  %.01325.i = phi i32 [ 0, %.preheader.i ], [ %spec.select.i, %24 ]
  %19 = getelementptr inbounds nuw %struct.GlyphInfo, ptr %16, i64 %indvars.iv.i
  %20 = load i32, ptr %19, align 8
  %21 = icmp eq i32 %20, 63
  %22 = trunc nuw nsw i64 %indvars.iv.i to i32
  %spec.select.i = select i1 %21, i32 %22, i32 %.01325.i
  %23 = icmp eq i32 %20, %1
  br i1 %23, label %25, label %24

24:                                               ; preds = %18
  %indvars.iv.next.i = add nuw nsw i64 %indvars.iv.i, 1
  %exitcond.not.i = icmp eq i64 %indvars.iv.next.i, %wide.trip.count.i
  br i1 %exitcond.not.i, label %.thread.i, label %18

25:                                               ; preds = %18
  %26 = icmp eq i64 %indvars.iv.i, 0
  br i1 %26, label %.thread.i, label %GetGlyphIndex.exit

.thread.i:                                        ; preds = %24, %25
  %27 = load i32, ptr %16, align 8
  %.not.i = icmp eq i32 %27, %1
  %spec.select17.i = select i1 %.not.i, i32 0, i32 %spec.select.i
  br label %GetGlyphIndex.exit

GetGlyphIndex.exit:                               ; preds = %5, %25, %.thread.i
  %.016.i = phi i32 [ %22, %25 ], [ %spec.select17.i, %.thread.i ], [ 0, %5 ]
  %28 = sitofp i32 %7 to float
  %29 = fdiv float %3, %28
  %.sroa.024.0.vec.extract = extractelement <2 x float> %2, i64 0
  %30 = sext i32 %.016.i to i64
  %31 = getelementptr inbounds %struct.GlyphInfo, ptr %16, i64 %30
  %32 = getelementptr inbounds nuw i8, ptr %31, i64 4
  %33 = load i32, ptr %32, align 4
  %34 = sitofp i32 %33 to float
  %35 = tail call float @llvm.fmuladd.f32(float %34, float %29, float %.sroa.024.0.vec.extract)
  %36 = getelementptr inbounds nuw i8, ptr %0, i64 8
  %37 = load i32, ptr %36, align 8
  %38 = sitofp i32 %37 to float
  %39 = fneg float %38
  %40 = tail call float @llvm.fmuladd.f32(float %39, float %29, float %35)
  %.sroa.05.0.vec.insert = insertelement <2 x float> poison, float %40, i64 0
  %.sroa.024.4.vec.extract = extractelement <2 x float> %2, i64 1
  %41 = getelementptr inbounds nuw i8, ptr %31, i64 8
  %42 = load i32, ptr %41, align 8
  %43 = sitofp i32 %42 to float
  %44 = tail call float @llvm.fmuladd.f32(float %43, float %29, float %.sroa.024.4.vec.extract)
  %45 = tail call float @llvm.fmuladd.f32(float %39, float %29, float %44)
  %.sroa.05.4.vec.insert = insertelement <2 x float> %.sroa.05.0.vec.insert, float %45, i64 1
  %46 = getelementptr inbounds %struct.Rectangle, ptr %13, i64 %30
  %47 = getelementptr inbounds nuw i8, ptr %46, i64 8
  %48 = load float, ptr %47, align 4
  %49 = tail call float @llvm.fmuladd.f32(float %38, float 2.000000e+00, float %48)
  %50 = fmul float %29, %49
  %.sroa.57.8.vec.insert = insertelement <2 x float> poison, float %50, i64 0
  %51 = getelementptr inbounds nuw i8, ptr %46, i64 12
  %52 = load float, ptr %51, align 4
  %53 = tail call float @llvm.fmuladd.f32(float %38, float 2.000000e+00, float %52)
  %54 = fmul float %29, %53
  %.sroa.57.12.vec.insert = insertelement <2 x float> %.sroa.57.8.vec.insert, float %54, i64 1
  %55 = load float, ptr %46, align 4
  %56 = fsub float %55, %38
  %.sroa.02.0.vec.insert = insertelement <2 x float> poison, float %56, i64 0
  %57 = getelementptr inbounds nuw i8, ptr %46, i64 4
  %58 = load float, ptr %57, align 4
  %59 = fsub float %58, %38
  %.sroa.02.4.vec.insert = insertelement <2 x float> %.sroa.02.0.vec.insert, float %59, i64 1
  %.sroa.5.8.vec.insert = insertelement <2 x float> poison, float %49, i64 0
  %.sroa.5.12.vec.insert = insertelement <2 x float> %.sroa.5.8.vec.insert, float %53, i64 1
  %60 = getelementptr inbounds nuw i8, ptr %0, i64 12
  call void @llvm.lifetime.start.p0(i64 20, ptr nonnull %6) #41
  call void @llvm.memcpy.p0.p0.i64(ptr noundef nonnull align 8 dereferenceable(20) %6, ptr noundef nonnull align 4 dereferenceable(20) %60, i64 20, i1 false)
  tail call void @DrawTexturePro(ptr noundef nonnull byval(%struct.Texture) align 8 %6, <2 x float> %.sroa.02.4.vec.insert, <2 x float> %.sroa.5.12.vec.insert, <2 x float> %.sroa.05.4.vec.insert, <2 x float> %.sroa.57.12.vec.insert, <2 x float> zeroinitializer, float noundef 0.000000e+00, i32 %4) #41
  call void @llvm.lifetime.end.p0(i64 20, ptr nonnull %6) #41
  ret void
}